; Function Attrs: mustprogress nounwind uwtable
define hidden noundef zeroext i1 @_ZN2os13get_host_nameEPcm(ptr noundef %0, i64 noundef %1) local_unnamed_addr #1 align 2 {
  %3 = alloca %struct.utsname, align 1
  %4 = call i32 @uname(ptr noundef nonnull %3) #25
  %.not = icmp ne i32 %4, -1
  br i1 %.not, label %5, label %8

5:                                                ; preds = %2
  %6 = getelementptr inbounds i8, ptr %3, i64 65
  %7 = call i32 (ptr, i64, ptr, ...) @jio_snprintf(ptr noundef %0, i64 noundef %1, ptr noundef nonnull @.str.8, ptr noundef nonnull %6) #25
  br label %14

8:                                                ; preds = %2
  %9 = tail call ptr @__errno_location() #26
  %10 = load i32, ptr %9, align 4
  %11 = tail call noundef ptr @_ZN2os8strerrorEi(i32 noundef %10) #25
  %12 = load volatile ptr, ptr getelementptr inbounds (i8, ptr @_ZN16LogTagSetMappingILN6LogTag4typeE105ELS1_0ELS1_0ELS1_0ELS1_0ELS1_0EE7_tagsetE, i64 72), align 8
  %.not4 = icmp eq ptr %12, null
  br i1 %.not4, label %14, label %13

13:                                               ; preds = %8
  tail call void (ptr, ...) @_ZN7LogImplILN6LogTag4typeE105ELS1_0ELS1_0ELS1_0ELS1_0ELS1_0EE5writeILN8LogLevel4typeE4EEEvPKcz(ptr noundef nonnull @.str.58, ptr noundef %11)
  br label %14

14:                                               ; preds = %13, %8, %5
  ret i1 %.not
}